target datalayout = "e-m:e-p270:32:32-p271:32:32-p272:64:64-i64:64-i128:128-f80:128-n8:16:32:64-S128"
target triple = "x86_64-unknown-linux-gnu"

%"class.absl::Mutex" = type { %"struct.std::atomic" }
%"struct.std::atomic" = type { %"struct.std::__atomic_base" }
%"struct.std::__atomic_base" = type { i64 }
%"class.absl::CondVar" = type { %"struct.std::atomic" }
%"struct.(anonymous namespace)::TestContext" = type { i32, i32, i32, i32, %"class.absl::Mutex", %"class.absl::CondVar" }
%"struct.(anonymous namespace)::MyContext" = type { i32, ptr }

; Function Attrs: mustprogress nounwind uwtable
define internal noundef zeroext i1 @_ZN12_GLOBAL__N_19MyContext6MyTurnEv(ptr noundef nonnull align 8 dereferenceable(16) %this) #7 align 2 {
entry:
  %this.addr = alloca ptr, align 8
  %cxt = alloca ptr, align 8
  store ptr %this, ptr %this.addr, align 8
  %this1 = load ptr, ptr %this.addr, align 8
  %cxt2 = getelementptr inbounds %"struct.(anonymous namespace)::MyContext", ptr %this1, i32 0, i32 1
  %0 = load ptr, ptr %cxt2, align 8
  store ptr %0, ptr %cxt, align 8
  %1 = load ptr, ptr %cxt, align 8
  %g0 = getelementptr inbounds %"struct.(anonymous namespace)::TestContext", ptr %1, i32 0, i32 2
  %2 = load i32, ptr %g0, align 8
  %target = getelementptr inbounds %"struct.(anonymous namespace)::MyContext", ptr %this1, i32 0, i32 0
  %3 = load i32, ptr %target, align 8
  %cmp = icmp eq i32 %2, %3
  br i1 %cmp, label %lor.end, label %lor.rhs

lor.rhs:                                          ; preds = %entry
  %4 = load ptr, ptr %cxt, align 8
  %g03 = getelementptr inbounds %"struct.(anonymous namespace)::TestContext", ptr %4, i32 0, i32 2
  %5 = load i32, ptr %g03, align 8
  %6 = load ptr, ptr %cxt, align 8
  %iterations = getelementptr inbounds %"struct.(anonymous namespace)::TestContext", ptr %6, i32 0, i32 0
  %7 = load i32, ptr %iterations, align 8
  %cmp4 = icmp eq i32 %5, %7
  br label %lor.end

lor.end:                                          ; preds = %lor.rhs, %entry
  %8 = phi i1 [ true, %entry ], [ %cmp4, %lor.rhs ]
  ret i1 %8
}