; Function Attrs: mustprogress nofree norecurse nosync nounwind willreturn memory(read, inaccessiblemem: none) uwtable
define internal noundef zeroext i1 @_ZN12_GLOBAL__N_19MyContext6MyTurnEv(ptr nocapture noundef nonnull readonly align 8 dereferenceable(16) %this) #19 align 2 {
entry:
  %cxt2 = getelementptr inbounds i8, ptr %this, i64 8
  %0 = load ptr, ptr %cxt2, align 8
  %g0 = getelementptr inbounds i8, ptr %0, i64 8
  %1 = load i32, ptr %g0, align 8
  %2 = load i32, ptr %this, align 8
  %cmp = icmp eq i32 %1, %2
  br i1 %cmp, label %lor.end, label %lor.rhs

lor.rhs:                                          ; preds = %entry
  %3 = load i32, ptr %0, align 8
  %cmp4 = icmp eq i32 %1, %3
  br label %lor.end

lor.end:                                          ; preds = %lor.rhs, %entry
  %4 = phi i1 [ true, %entry ], [ %cmp4, %lor.rhs ]
  ret i1 %4
}